; ModuleID = '57/2633.c'
source_filename = "57/2633.c"
target datalayout = "e-m:e-p270:32:32-p271:32:32-p272:64:64-i64:64-f80:128-n8:16:32:64-S128"
target triple = "x86_64-pc-linux-gnu"

@.str = private unnamed_addr constant [3 x i8] c"%d\00", align 1
@.str.1 = private unnamed_addr constant [3 x i8] c"%s\00", align 1
@.str.2 = private unnamed_addr constant [3 x i8] c"%c\00", align 1
@.str.3 = private unnamed_addr constant [2 x i8] c"\0A\00", align 1
@.str.4 = private unnamed_addr constant [4 x i8] c"%s\0A\00", align 1

; Function Attrs: noinline nounwind uwtable
define dso_local void @main() #0 {
  %1 = alloca i32, align 4
  %2 = alloca i32, align 4
  %3 = alloca i32, align 4
  %4 = alloca i32, align 4
  %5 = alloca [30 x i8], align 16
  %6 = alloca [1000 x i8], align 16
  %7 = bitcast [30 x i8]* %5 to i8*
  call void @llvm.memset.p0i8.i64(i8* align 16 %7, i8 0, i64 30, i1 false)
  %8 = bitcast [1000 x i8]* %6 to i8*
  call void @llvm.memset.p0i8.i64(i8* align 16 %8, i8 0, i64 1000, i1 false)
  %9 = call i32 (i8*, ...) @__isoc99_scanf(i8* getelementptr inbounds ([3 x i8], [3 x i8]* @.str, i64 0, i64 0), i32* %3)
  store i32 0, i32* %1, align 4
  br label %10

10:                                               ; preds = %135, %0
  %11 = load i32, i32* %1, align 4
  %12 = load i32, i32* %3, align 4
  %13 = icmp slt i32 %11, %12
  br i1 %13, label %14, label %138

14:                                               ; preds = %10
  %15 = getelementptr inbounds [30 x i8], [30 x i8]* %5, i64 0, i64 0
  %16 = call i32 (i8*, ...) @__isoc99_scanf(i8* getelementptr inbounds ([3 x i8], [3 x i8]* @.str.1, i64 0, i64 0), i8* %15)
  %17 = getelementptr inbounds [30 x i8], [30 x i8]* %5, i64 0, i64 0
  %18 = call i64 @strlen(i8* %17) #4
  %19 = trunc i64 %18 to i32
  store i32 %19, i32* %4, align 4
  %20 = load i32, i32* %4, align 4
  %21 = sub nsw i32 %20, 1
  %22 = sext i32 %21 to i64
  %23 = getelementptr inbounds [30 x i8], [30 x i8]* %5, i64 0, i64 %22
  %24 = load i8, i8* %23, align 1
  %25 = sext i8 %24 to i32
  %26 = icmp eq i32 %25, 114
  br i1 %26, label %27, label %53

27:                                               ; preds = %14
  %28 = load i32, i32* %4, align 4
  %29 = sub nsw i32 %28, 2
  %30 = sext i32 %29 to i64
  %31 = getelementptr inbounds [30 x i8], [30 x i8]* %5, i64 0, i64 %30
  %32 = load i8, i8* %31, align 1
  %33 = sext i8 %32 to i32
  %34 = icmp eq i32 %33, 101
  br i1 %34, label %35, label %53

35:                                               ; preds = %27
  store i32 0, i32* %2, align 4
  br label %36

36:                                               ; preds = %48, %35
  %37 = load i32, i32* %2, align 4
  %38 = load i32, i32* %4, align 4
  %39 = sub nsw i32 %38, 2
  %40 = icmp slt i32 %37, %39
  br i1 %40, label %41, label %51

41:                                               ; preds = %36
  %42 = load i32, i32* %2, align 4
  %43 = sext i32 %42 to i64
  %44 = getelementptr inbounds [30 x i8], [30 x i8]* %5, i64 0, i64 %43
  %45 = load i8, i8* %44, align 1
  %46 = sext i8 %45 to i32
  %47 = call i32 (i8*, ...) @printf(i8* getelementptr inbounds ([3 x i8], [3 x i8]* @.str.2, i64 0, i64 0), i32 %46)
  br label %48

48:                                               ; preds = %41
  %49 = load i32, i32* %2, align 4
  %50 = add nsw i32 %49, 1
  store i32 %50, i32* %2, align 4
  br label %36

51:                                               ; preds = %36
  %52 = call i32 (i8*, ...) @printf(i8* getelementptr inbounds ([2 x i8], [2 x i8]* @.str.3, i64 0, i64 0))
  br label %134

53:                                               ; preds = %27, %14
  %54 = load i32, i32* %4, align 4
  %55 = sub nsw i32 %54, 1
  %56 = sext i32 %55 to i64
  %57 = getelementptr inbounds [30 x i8], [30 x i8]* %5, i64 0, i64 %56
  %58 = load i8, i8* %57, align 1
  %59 = sext i8 %58 to i32
  %60 = icmp eq i32 %59, 121
  br i1 %60, label %61, label %87

61:                                               ; preds = %53
  %62 = load i32, i32* %4, align 4
  %63 = sub nsw i32 %62, 2
  %64 = sext i32 %63 to i64
  %65 = getelementptr inbounds [30 x i8], [30 x i8]* %5, i64 0, i64 %64
  %66 = load i8, i8* %65, align 1
  %67 = sext i8 %66 to i32
  %68 = icmp eq i32 %67, 108
  br i1 %68, label %69, label %87

69:                                               ; preds = %61
  store i32 0, i32* %2, align 4
  br label %70

70:                                               ; preds = %82, %69
  %71 = load i32, i32* %2, align 4
  %72 = load i32, i32* %4, align 4
  %73 = sub nsw i32 %72, 2
  %74 = icmp slt i32 %71, %73
  br i1 %74, label %75, label %85

75:                                               ; preds = %70
  %76 = load i32, i32* %2, align 4
  %77 = sext i32 %76 to i64
  %78 = getelementptr inbounds [30 x i8], [30 x i8]* %5, i64 0, i64 %77
  %79 = load i8, i8* %78, align 1
  %80 = sext i8 %79 to i32
  %81 = call i32 (i8*, ...) @printf(i8* getelementptr inbounds ([3 x i8], [3 x i8]* @.str.2, i64 0, i64 0), i32 %80)
  br label %82

82:                                               ; preds = %75
  %83 = load i32, i32* %2, align 4
  %84 = add nsw i32 %83, 1
  store i32 %84, i32* %2, align 4
  br label %70

85:                                               ; preds = %70
  %86 = call i32 (i8*, ...) @printf(i8* getelementptr inbounds ([2 x i8], [2 x i8]* @.str.3, i64 0, i64 0))
  br label %133

87:                                               ; preds = %61, %53
  %88 = load i32, i32* %4, align 4
  %89 = sub nsw i32 %88, 1
  %90 = sext i32 %89 to i64
  %91 = getelementptr inbounds [30 x i8], [30 x i8]* %5, i64 0, i64 %90
  %92 = load i8, i8* %91, align 1
  %93 = sext i8 %92 to i32
  %94 = icmp eq i32 %93, 103
  br i1 %94, label %95, label %129

95:                                               ; preds = %87
  %96 = load i32, i32* %4, align 4
  %97 = sub nsw i32 %96, 2
  %98 = sext i32 %97 to i64
  %99 = getelementptr inbounds [30 x i8], [30 x i8]* %5, i64 0, i64 %98
  %100 = load i8, i8* %99, align 1
  %101 = sext i8 %100 to i32
  %102 = icmp eq i32 %101, 110
  br i1 %102, label %103, label %129

103:                                              ; preds = %95
  %104 = load i32, i32* %4, align 4
  %105 = sub nsw i32 %104, 3
  %106 = sext i32 %105 to i64
  %107 = getelementptr inbounds [30 x i8], [30 x i8]* %5, i64 0, i64 %106
  %108 = load i8, i8* %107, align 1
  %109 = sext i8 %108 to i32
  %110 = icmp eq i32 %109, 105
  br i1 %110, label %111, label %129

111:                                              ; preds = %103
  store i32 0, i32* %2, align 4
  br label %112

112:                                              ; preds = %124, %111
  %113 = load i32, i32* %2, align 4
  %114 = load i32, i32* %4, align 4
  %115 = sub nsw i32 %114, 3
  %116 = icmp slt i32 %113, %115
  br i1 %116, label %117, label %127

117:                                              ; preds = %112
  %118 = load i32, i32* %2, align 4
  %119 = sext i32 %118 to i64
  %120 = getelementptr inbounds [30 x i8], [30 x i8]* %5, i64 0, i64 %119
  %121 = load i8, i8* %120, align 1
  %122 = sext i8 %121 to i32
  %123 = call i32 (i8*, ...) @printf(i8* getelementptr inbounds ([3 x i8], [3 x i8]* @.str.2, i64 0, i64 0), i32 %122)
  br label %124

124:                                              ; preds = %117
  %125 = load i32, i32* %2, align 4
  %126 = add nsw i32 %125, 1
  store i32 %126, i32* %2, align 4
  br label %112

127:                                              ; preds = %112
  %128 = call i32 (i8*, ...) @printf(i8* getelementptr inbounds ([2 x i8], [2 x i8]* @.str.3, i64 0, i64 0))
  br label %132

129:                                              ; preds = %103, %95, %87
  %130 = getelementptr inbounds [30 x i8], [30 x i8]* %5, i64 0, i64 0
  %131 = call i32 (i8*, ...) @printf(i8* getelementptr inbounds ([4 x i8], [4 x i8]* @.str.4, i64 0, i64 0), i8* %130)
  br label %132

132:                                              ; preds = %129, %127
  br label %133

133:                                              ; preds = %132, %85
  br label %134

134:                                              ; preds = %133, %51
  br label %135

135:                                              ; preds = %134
  %136 = load i32, i32* %1, align 4
  %137 = add nsw i32 %136, 1
  store i32 %137, i32* %1, align 4
  br label %10

138:                                              ; preds = %10
  ret void
}

; Function Attrs: argmemonly nounwind willreturn
declare void @llvm.memset.p0i8.i64(i8* nocapture writeonly, i8, i64, i1 immarg) #1

declare dso_local i32 @__isoc99_scanf(i8*, ...) #2

; Function Attrs: nounwind readonly
declare dso_local i64 @strlen(i8*) #3

declare dso_local i32 @printf(i8*, ...) #2


!llvm.module.flags = !{!0}
!llvm.ident = !{!1}

!0 = !{i32 1, !"wchar_size", i32 4}
!1 = !{!"clang version 10.0.0-4ubuntu1 "}
